target datalayout = "e-m:e-p270:32:32-p271:32:32-p272:64:64-i64:64-i128:128-f80:128-n8:16:32:64-S128"
target triple = "x86_64-pc-linux-gnu"

%struct.altsvc = type { %struct.althost, %struct.althost, i64, i8, i32, %struct.Curl_llist_node }
%struct.althost = type { ptr, i16, i32 }
%struct.Curl_llist_node = type { ptr, ptr, ptr, ptr }

@Curl_ccalloc = external global ptr, align 8
@Curl_cfree = external global ptr, align 8

; Function Attrs: nounwind uwtable
define internal void @altsvc_free(ptr noundef %0) #0 {
  %2 = alloca ptr, align 8
  store ptr %0, ptr %2, align 8, !tbaa !29
  %3 = load ptr, ptr @Curl_cfree, align 8, !tbaa !7
  %4 = load ptr, ptr %2, align 8, !tbaa !29
  %5 = getelementptr inbounds nuw %struct.altsvc, ptr %4, i32 0, i32 0
  %6 = getelementptr inbounds nuw %struct.althost, ptr %5, i32 0, i32 0
  %7 = load ptr, ptr %6, align 8, !tbaa !32
  call void %3(ptr noundef %7)
  %8 = load ptr, ptr @Curl_cfree, align 8, !tbaa !7
  %9 = load ptr, ptr %2, align 8, !tbaa !29
  %10 = getelementptr inbounds nuw %struct.altsvc, ptr %9, i32 0, i32 1
  %11 = getelementptr inbounds nuw %struct.althost, ptr %10, i32 0, i32 0
  %12 = load ptr, ptr %11, align 8, !tbaa !39
  call void %8(ptr noundef %12)
  %13 = load ptr, ptr @Curl_cfree, align 8, !tbaa !7
  %14 = load ptr, ptr %2, align 8, !tbaa !29
  call void %13(ptr noundef %14)
  ret void
}

; Function Attrs: nounwind uwtable
define internal ptr @altsvc_createid(ptr noundef %0, i64 noundef %1, ptr noundef %2, i64 noundef %3, i32 noundef %4, i32 noundef %5, i64 noundef %6, i64 noundef %7) #0 {
  %9 = alloca ptr, align 8
  %10 = alloca ptr, align 8
  %11 = alloca i64, align 8
  %12 = alloca ptr, align 8
  %13 = alloca i64, align 8
  %14 = alloca i32, align 4
  %15 = alloca i32, align 4
  %16 = alloca i64, align 8
  %17 = alloca i64, align 8
  %18 = alloca ptr, align 8
  %19 = alloca i32, align 4
  store ptr %0, ptr %10, align 8, !tbaa !17
  store i64 %1, ptr %11, align 8, !tbaa !25
  store ptr %2, ptr %12, align 8, !tbaa !17
  store i64 %3, ptr %13, align 8, !tbaa !25
  store i32 %4, ptr %14, align 4, !tbaa !3
  store i32 %5, ptr %15, align 4, !tbaa !3
  store i64 %6, ptr %16, align 8, !tbaa !25
  store i64 %7, ptr %17, align 8, !tbaa !25
  call void @llvm.lifetime.start.p0(i64 8, ptr %18) #7
  %20 = load ptr, ptr @Curl_ccalloc, align 8, !tbaa !7
  %21 = call ptr %20(i64 noundef 1, i64 noundef 80)
  store ptr %21, ptr %18, align 8, !tbaa !29
  %22 = load ptr, ptr %18, align 8, !tbaa !29
  %23 = icmp ne ptr %22, null
  br i1 %23, label %25, label %24

24:                                               ; preds = %8
  store ptr null, ptr %9, align 8
  store i32 1, ptr %19, align 4
  br label %130

25:                                               ; preds = %8
  br label %26

26:                                               ; preds = %25
  br label %27

27:                                               ; preds = %26
  br label %28

28:                                               ; preds = %27
  br label %29

29:                                               ; preds = %28
  br label %30

30:                                               ; preds = %29
  br label %31

31:                                               ; preds = %30
  %32 = load i64, ptr %11, align 8, !tbaa !25
  %33 = icmp ne i64 %32, 0
  br i1 %33, label %34, label %37

34:                                               ; preds = %31
  %35 = load i64, ptr %13, align 8, !tbaa !25
  %36 = icmp ne i64 %35, 0
  br i1 %36, label %38, label %37

37:                                               ; preds = %34, %31
  br label %128

38:                                               ; preds = %34
  %39 = load i64, ptr %11, align 8, !tbaa !25
  %40 = icmp ugt i64 %39, 2
  br i1 %40, label %41, label %52

41:                                               ; preds = %38
  %42 = load ptr, ptr %10, align 8, !tbaa !17
  %43 = getelementptr inbounds i8, ptr %42, i64 0
  %44 = load i8, ptr %43, align 1, !tbaa !21
  %45 = sext i8 %44 to i32
  %46 = icmp eq i32 %45, 91
  br i1 %46, label %47, label %52

47:                                               ; preds = %41
  %48 = load ptr, ptr %10, align 8, !tbaa !17
  %49 = getelementptr inbounds nuw i8, ptr %48, i32 1
  store ptr %49, ptr %10, align 8, !tbaa !17
  %50 = load i64, ptr %11, align 8, !tbaa !25
  %51 = sub i64 %50, 2
  store i64 %51, ptr %11, align 8, !tbaa !25
  br label %68

52:                                               ; preds = %41, %38
  %53 = load ptr, ptr %10, align 8, !tbaa !17
  %54 = load i64, ptr %11, align 8, !tbaa !25
  %55 = sub i64 %54, 1
  %56 = getelementptr inbounds nuw i8, ptr %53, i64 %55
  %57 = load i8, ptr %56, align 1, !tbaa !21
  %58 = sext i8 %57 to i32
  %59 = icmp eq i32 %58, 46
  br i1 %59, label %60, label %67

60:                                               ; preds = %52
  %61 = load i64, ptr %11, align 8, !tbaa !25
  %62 = add i64 %61, -1
  store i64 %62, ptr %11, align 8, !tbaa !25
  %63 = load i64, ptr %11, align 8, !tbaa !25
  %64 = icmp ne i64 %63, 0
  br i1 %64, label %66, label %65

65:                                               ; preds = %60
  br label %128

66:                                               ; preds = %60
  br label %67

67:                                               ; preds = %66, %52
  br label %68

68:                                               ; preds = %67, %47
  %69 = load i64, ptr %13, align 8, !tbaa !25
  %70 = icmp ugt i64 %69, 2
  br i1 %70, label %71, label %82

71:                                               ; preds = %68
  %72 = load ptr, ptr %12, align 8, !tbaa !17
  %73 = getelementptr inbounds i8, ptr %72, i64 0
  %74 = load i8, ptr %73, align 1, !tbaa !21
  %75 = sext i8 %74 to i32
  %76 = icmp eq i32 %75, 91
  br i1 %76, label %77, label %82

77:                                               ; preds = %71
  %78 = load ptr, ptr %12, align 8, !tbaa !17
  %79 = getelementptr inbounds nuw i8, ptr %78, i32 1
  store ptr %79, ptr %12, align 8, !tbaa !17
  %80 = load i64, ptr %13, align 8, !tbaa !25
  %81 = sub i64 %80, 2
  store i64 %81, ptr %13, align 8, !tbaa !25
  br label %82

82:                                               ; preds = %77, %71, %68
  %83 = load ptr, ptr %10, align 8, !tbaa !17
  %84 = load i64, ptr %11, align 8, !tbaa !25
  %85 = call ptr @Curl_memdup0(ptr noundef %83, i64 noundef %84)
  %86 = load ptr, ptr %18, align 8, !tbaa !29
  %87 = getelementptr inbounds nuw %struct.altsvc, ptr %86, i32 0, i32 0
  %88 = getelementptr inbounds nuw %struct.althost, ptr %87, i32 0, i32 0
  store ptr %85, ptr %88, align 8, !tbaa !32
  %89 = load ptr, ptr %18, align 8, !tbaa !29
  %90 = getelementptr inbounds nuw %struct.altsvc, ptr %89, i32 0, i32 0
  %91 = getelementptr inbounds nuw %struct.althost, ptr %90, i32 0, i32 0
  %92 = load ptr, ptr %91, align 8, !tbaa !32
  %93 = icmp ne ptr %92, null
  br i1 %93, label %95, label %94

94:                                               ; preds = %82
  br label %128

95:                                               ; preds = %82
  %96 = load ptr, ptr %12, align 8, !tbaa !17
  %97 = load i64, ptr %13, align 8, !tbaa !25
  %98 = call ptr @Curl_memdup0(ptr noundef %96, i64 noundef %97)
  %99 = load ptr, ptr %18, align 8, !tbaa !29
  %100 = getelementptr inbounds nuw %struct.altsvc, ptr %99, i32 0, i32 1
  %101 = getelementptr inbounds nuw %struct.althost, ptr %100, i32 0, i32 0
  store ptr %98, ptr %101, align 8, !tbaa !39
  %102 = load ptr, ptr %18, align 8, !tbaa !29
  %103 = getelementptr inbounds nuw %struct.altsvc, ptr %102, i32 0, i32 1
  %104 = getelementptr inbounds nuw %struct.althost, ptr %103, i32 0, i32 0
  %105 = load ptr, ptr %104, align 8, !tbaa !39
  %106 = icmp ne ptr %105, null
  br i1 %106, label %108, label %107

107:                                              ; preds = %95
  br label %128

108:                                              ; preds = %95
  %109 = load i32, ptr %14, align 4, !tbaa !3
  %110 = load ptr, ptr %18, align 8, !tbaa !29
  %111 = getelementptr inbounds nuw %struct.altsvc, ptr %110, i32 0, i32 0
  %112 = getelementptr inbounds nuw %struct.althost, ptr %111, i32 0, i32 2
  store i32 %109, ptr %112, align 4, !tbaa !44
  %113 = load i32, ptr %15, align 4, !tbaa !3
  %114 = load ptr, ptr %18, align 8, !tbaa !29
  %115 = getelementptr inbounds nuw %struct.altsvc, ptr %114, i32 0, i32 1
  %116 = getelementptr inbounds nuw %struct.althost, ptr %115, i32 0, i32 2
  store i32 %113, ptr %116, align 4, !tbaa !46
  %117 = load i64, ptr %16, align 8, !tbaa !25
  %118 = trunc i64 %117 to i16
  %119 = load ptr, ptr %18, align 8, !tbaa !29
  %120 = getelementptr inbounds nuw %struct.altsvc, ptr %119, i32 0, i32 0
  %121 = getelementptr inbounds nuw %struct.althost, ptr %120, i32 0, i32 1
  store i16 %118, ptr %121, align 8, !tbaa !45
  %122 = load i64, ptr %17, align 8, !tbaa !25
  %123 = trunc i64 %122 to i16
  %124 = load ptr, ptr %18, align 8, !tbaa !29
  %125 = getelementptr inbounds nuw %struct.altsvc, ptr %124, i32 0, i32 1
  %126 = getelementptr inbounds nuw %struct.althost, ptr %125, i32 0, i32 1
  store i16 %123, ptr %126, align 8, !tbaa !47
  %127 = load ptr, ptr %18, align 8, !tbaa !29
  store ptr %127, ptr %9, align 8
  store i32 1, ptr %19, align 4
  br label %130

128:                                              ; preds = %107, %94, %65, %37
  %129 = load ptr, ptr %18, align 8, !tbaa !29
  call void @altsvc_free(ptr noundef %129)
  store ptr null, ptr %9, align 8
  store i32 1, ptr %19, align 4
  br label %130

130:                                              ; preds = %128, %108, %24
  call void @llvm.lifetime.end.p0(i64 8, ptr %18) #7
  %131 = load ptr, ptr %9, align 8
  ret ptr %131
}