; Function Attrs: nounwind uwtable
define internal fastcc ptr @altsvc_createid(ptr noundef %0, i64 noundef %1, ptr noundef %2, i64 noundef %3, i32 noundef %4, i32 noundef range(i32 1, 0) %5, i64 noundef %6, i64 noundef %7) unnamed_addr #1 {
  %9 = load ptr, ptr @Curl_ccalloc, align 8, !tbaa !3
  %10 = tail call ptr %9(i64 noundef 1, i64 noundef 80) #12
  %.not = icmp eq ptr %10, null
  br i1 %.not, label %56, label %11

11:                                               ; preds = %8
  %12 = icmp ne i64 %1, 0
  %13 = icmp ne i64 %3, 0
  %or.cond = and i1 %12, %13
  br i1 %or.cond, label %14, label %49

14:                                               ; preds = %11
  %15 = icmp ugt i64 %1, 2
  br i1 %15, label %16, label %22

16:                                               ; preds = %14
  %17 = load i8, ptr %0, align 1, !tbaa !14
  %18 = icmp eq i8 %17, 91
  br i1 %18, label %19, label %22

19:                                               ; preds = %16
  %20 = getelementptr inbounds nuw i8, ptr %0, i64 1
  %21 = add i64 %1, -2
  br label %29

22:                                               ; preds = %16, %14
  %23 = getelementptr i8, ptr %0, i64 %1
  %24 = getelementptr i8, ptr %23, i64 -1
  %25 = load i8, ptr %24, align 1, !tbaa !14
  %26 = icmp eq i8 %25, 46
  br i1 %26, label %27, label %29

27:                                               ; preds = %22
  %28 = add i64 %1, -1
  %.not42 = icmp eq i64 %28, 0
  br i1 %.not42, label %49, label %29

29:                                               ; preds = %22, %27, %19
  %.035 = phi i64 [ %21, %19 ], [ %28, %27 ], [ %1, %22 ]
  %.034 = phi ptr [ %20, %19 ], [ %0, %27 ], [ %0, %22 ]
  %30 = icmp ugt i64 %3, 2
  br i1 %30, label %31, label %37

31:                                               ; preds = %29
  %32 = load i8, ptr %2, align 1, !tbaa !14
  %33 = icmp eq i8 %32, 91
  br i1 %33, label %34, label %37

34:                                               ; preds = %31
  %35 = getelementptr inbounds nuw i8, ptr %2, i64 1
  %36 = add i64 %3, -2
  br label %37

37:                                               ; preds = %34, %31, %29
  %.037 = phi i64 [ %36, %34 ], [ %3, %31 ], [ %3, %29 ]
  %.036 = phi ptr [ %35, %34 ], [ %2, %31 ], [ %2, %29 ]
  %38 = tail call ptr @Curl_memdup0(ptr noundef nonnull %.034, i64 noundef %.035) #12
  store ptr %38, ptr %10, align 8, !tbaa !34
  %.not43 = icmp eq ptr %38, null
  br i1 %.not43, label %49, label %39

39:                                               ; preds = %37
  %40 = tail call ptr @Curl_memdup0(ptr noundef %.036, i64 noundef %.037) #12
  %41 = getelementptr inbounds nuw i8, ptr %10, i64 16
  store ptr %40, ptr %41, align 8, !tbaa !35
  %.not44 = icmp eq ptr %40, null
  br i1 %.not44, label %49, label %42

42:                                               ; preds = %39
  %43 = getelementptr inbounds nuw i8, ptr %10, i64 12
  store i32 %4, ptr %43, align 4, !tbaa !39
  %44 = getelementptr inbounds nuw i8, ptr %10, i64 28
  store i32 %5, ptr %44, align 4, !tbaa !41
  %45 = trunc i64 %6 to i16
  %46 = getelementptr inbounds nuw i8, ptr %10, i64 8
  store i16 %45, ptr %46, align 8, !tbaa !40
  %47 = trunc i64 %7 to i16
  %48 = getelementptr inbounds nuw i8, ptr %10, i64 24
  store i16 %47, ptr %48, align 8, !tbaa !42
  br label %56

49:                                               ; preds = %39, %37, %27, %11
  %50 = load ptr, ptr @Curl_cfree, align 8, !tbaa !3
  %51 = load ptr, ptr %10, align 8, !tbaa !34
  tail call void %50(ptr noundef %51) #12
  %52 = load ptr, ptr @Curl_cfree, align 8, !tbaa !3
  %53 = getelementptr inbounds nuw i8, ptr %10, i64 16
  %54 = load ptr, ptr %53, align 8, !tbaa !35
  tail call void %52(ptr noundef %54) #12
  %55 = load ptr, ptr @Curl_cfree, align 8, !tbaa !3
  tail call void %55(ptr noundef nonnull %10) #12
  br label %56

56:                                               ; preds = %8, %49, %42
  %.0 = phi ptr [ %10, %42 ], [ null, %49 ], [ null, %8 ]
  ret ptr %.0
}